target datalayout = "e-m:e-p270:32:32-p271:32:32-p272:64:64-i64:64-i128:128-f80:128-n8:16:32:64-S128"
target triple = "x86_64-pc-linux-gnu"

%struct.ARKodeMRIStepMemRec = type { ptr, ptr, i32, i32, i32, i32, i32, ptr, ptr, i32, i32, i32, ptr, i32, i32, i32, i32, i32, ptr, ptr, ptr, ptr, ptr, ptr, ptr, i32, ptr, i32, ptr, double, double, double, double, i32, double, double, double, double, double, double, i32, i64, i32, i32, i32, ptr, ptr, ptr, ptr, ptr, ptr, ptr, ptr, ptr, double, double, double, i64, i64, i64, i64, i64, i64, i32, i32, i32, double, double, ptr, i32, ptr, ptr }

@__func__.mriStep_GetNonlinSolvStats = private unnamed_addr constant [27 x i8] c"mriStep_GetNonlinSolvStats\00", align 1

; Function Attrs: nounwind uwtable
define i32 @mriStep_GetNonlinSolvStats(ptr noundef %0, ptr noundef %1, ptr noundef %2) #0 {
  %4 = alloca i32, align 4
  %5 = alloca ptr, align 8
  %6 = alloca ptr, align 8
  %7 = alloca ptr, align 8
  %8 = alloca ptr, align 8
  %9 = alloca i32, align 4
  %10 = alloca i32, align 4
  store ptr %0, ptr %5, align 8, !tbaa !11
  store ptr %1, ptr %6, align 8, !tbaa !45
  store ptr %2, ptr %7, align 8, !tbaa !45
  call void @llvm.lifetime.start.p0(i64 8, ptr %8) #4
  call void @llvm.lifetime.start.p0(i64 4, ptr %9) #4
  %11 = load ptr, ptr %5, align 8, !tbaa !11
  %12 = call i32 @mriStep_AccessStepMem(ptr noundef %11, ptr noundef @__func__.mriStep_GetNonlinSolvStats, ptr noundef %8)
  store i32 %12, ptr %9, align 4, !tbaa !9
  %13 = load i32, ptr %9, align 4, !tbaa !9
  %14 = icmp ne i32 %13, 0
  br i1 %14, label %15, label %17

15:                                               ; preds = %3
  %16 = load i32, ptr %9, align 4, !tbaa !9
  store i32 %16, ptr %4, align 4
  store i32 1, ptr %10, align 4
  br label %26

17:                                               ; preds = %3
  %18 = load ptr, ptr %8, align 8, !tbaa !13
  %19 = getelementptr inbounds nuw %struct.ARKodeMRIStepMemRec, ptr %18, i32 0, i32 60
  %20 = load i64, ptr %19, align 8, !tbaa !89
  %21 = load ptr, ptr %6, align 8, !tbaa !45
  store i64 %20, ptr %21, align 8, !tbaa !28
  %22 = load ptr, ptr %8, align 8, !tbaa !13
  %23 = getelementptr inbounds nuw %struct.ARKodeMRIStepMemRec, ptr %22, i32 0, i32 61
  %24 = load i64, ptr %23, align 8, !tbaa !90
  %25 = load ptr, ptr %7, align 8, !tbaa !45
  store i64 %24, ptr %25, align 8, !tbaa !28
  store i32 0, ptr %4, align 4
  store i32 1, ptr %10, align 4
  br label %26

26:                                               ; preds = %17, %15
  call void @llvm.lifetime.end.p0(i64 4, ptr %9) #4
  call void @llvm.lifetime.end.p0(i64 8, ptr %8) #4
  %27 = load i32, ptr %4, align 4
  ret i32 %27
}